; Function Attrs: mustprogress nofree norecurse nosync nounwind willreturn memory(read, inaccessiblemem: none) uwtable
define internal noundef nonnull ptr @"_ZNSt17_Function_handlerIFPvS0_EZN3euf6solver4copyEPN3sat6solverEE3$_0E9_M_invokeERKSt9_Any_dataOS0_"(ptr nocapture noundef nonnull readonly align 8 dereferenceable(16) %__functor, ptr nocapture nonnull readnone align 8 %__args) #8 align 2 {
entry:
  %0 = getelementptr inbounds i8, ptr %__functor, i64 8
  %call.val = load ptr, ptr %0, align 8
  %call.val.val = load i32, ptr %call.val, align 4
  %shl.i.i.i.i = shl i32 %call.val.val, 4
  %1 = or disjoint i32 %shl.i.i.i.i, 1
  %or.i.i.i.i = zext i32 %1 to i64
  %2 = inttoptr i64 %or.i.i.i.i to ptr
  ret ptr %2
}